target datalayout = "e-m:e-p270:32:32-p271:32:32-p272:64:64-i64:64-i128:128-f80:128-n8:16:32:64-S128"
target triple = "x86_64-pc-linux-gnu"

%struct.darktable_t = type { %struct.dt_codepath_t, i32, i32, ptr, ptr, ptr, ptr, ptr, ptr, ptr, ptr, ptr, ptr, ptr, ptr, ptr, ptr, ptr, ptr, ptr, ptr, ptr, ptr, ptr, ptr, ptr, ptr, ptr, ptr, ptr, [64 x %struct.dt_pthread_mutex_t], %struct.dt_pthread_mutex_t, %struct.dt_pthread_mutex_t, %struct.dt_pthread_mutex_t, %struct.dt_pthread_mutex_t, %struct.dt_pthread_mutex_t, ptr, ptr, ptr, ptr, ptr, ptr, ptr, ptr, ptr, ptr, ptr, ptr, ptr, %struct.dt_lua_state_t, ptr, double, ptr, i32, [47 x i32], i32, i32, ptr, ptr, %struct.dt_sys_resources_t, %struct.dt_backthumb_t, %struct.dt_gimp_t }
%struct.dt_codepath_t = type { i8, [3 x i8] }
%struct.dt_pthread_mutex_t = type { %union.pthread_mutex_t }
%union.pthread_mutex_t = type { %struct.__pthread_mutex_s }
%struct.__pthread_mutex_s = type { i32, i32, i32, i32, i32, i16, i16, %struct.__pthread_internal_list }
%struct.__pthread_internal_list = type { ptr, ptr }
%struct.dt_lua_state_t = type { i32 }
%struct.dt_sys_resources_t = type { i64, i64, ptr, ptr, i32 }
%struct.dt_backthumb_t = type { double, double, i32, i32, i32, i32 }
%struct.dt_gimp_t = type { i32, ptr, ptr, i32, i32 }
%struct._GtkTreeIter = type { i32, ptr, ptr, ptr }
%struct.dt_gui_presets_edit_dialog_t = type { ptr, ptr, ptr, ptr, i32, ptr, ptr, ptr, ptr, ptr, ptr, ptr, ptr, ptr, ptr, ptr, ptr, ptr, ptr, ptr, ptr, ptr, ptr, ptr, ptr, i32, [5 x ptr], ptr, ptr }

@darktable = external global %struct.darktable_t, align 8
@.str.48 = private unnamed_addr constant [119 x i8] c"generated/home/dtcxzyw/WorkSpace/Projects/compilers/llvm-opt-benchmark/bench/darktable/darktable/src/gui/preferences.c\00", align 1
@.str.476 = private unnamed_addr constant [41 x i8] c"[sql] %s:%d, function %s(): prepare \22%s\22\00", align 1
@stderr = external global ptr, align 8
@.str.478 = private unnamed_addr constant [53 x i8] c"sqlite3 error: %s:%d, function %s(), query \22%s\22: %s\0A\00", align 1
@edited_iter = internal global %struct._GtkTreeIter zeroinitializer, align 8
@__FUNCTION__.edit_preset_response = private unnamed_addr constant [21 x i8] c"edit_preset_response\00", align 1
@.str.497 = private unnamed_addr constant [220 x i8] c"SELECT rowid, name, operation, autoapply, model, maker, lens, iso_min, iso_max, exposure_min, exposure_max, aperture_min, aperture_max, focal_length_min, focal_length_max, writeprotect FROM data.presets WHERE rowid = ?1\00", align 1
@.str.498 = private unnamed_addr constant [41 x i8] c"sqlite3 error: %s:%d, function %s(): %s\0A\00", align 1

; Function Attrs: nounwind uwtable
define internal void @edit_preset_response(ptr noundef %0) #0 {
  %2 = alloca ptr, align 8
  %3 = alloca ptr, align 8
  %4 = alloca ptr, align 8
  %5 = alloca ptr, align 8
  %6 = alloca i32, align 4
  %7 = alloca i32, align 4
  store ptr %0, ptr %2, align 8, !tbaa !171
  %8 = load ptr, ptr %2, align 8, !tbaa !171
  %9 = getelementptr inbounds nuw %struct.dt_gui_presets_edit_dialog_t, ptr %8, i32 0, i32 25
  %10 = load i32, ptr %9, align 8, !tbaa !173
  %11 = icmp ne i32 %10, 0
  br i1 %11, label %16, label %12

12:                                               ; preds = %1
  %13 = load ptr, ptr %2, align 8, !tbaa !171
  %14 = getelementptr inbounds nuw %struct.dt_gui_presets_edit_dialog_t, ptr %13, i32 0, i32 28
  %15 = load ptr, ptr %14, align 8, !tbaa !178
  call void @_delete_line_and_empty_parent(ptr noundef %15, ptr noundef @edited_iter)
  br label %72

16:                                               ; preds = %1
  call void @llvm.lifetime.start.p0(i64 8, ptr %3) #10
  call void @llvm.lifetime.start.p0(i64 8, ptr %4) #10
  call void @_create_lock_check_pixbuf(ptr noundef %3, ptr noundef %4)
  call void @llvm.lifetime.start.p0(i64 8, ptr %5) #10
  br label %17

17:                                               ; preds = %16
  br label %18

18:                                               ; preds = %17
  %19 = load i32, ptr getelementptr inbounds nuw (%struct.darktable_t, ptr @darktable, i32 0, i32 2), align 8, !tbaa !82
  %20 = and i32 256, %19
  %21 = icmp ne i32 %20, 0
  br i1 %21, label %22, label %28

22:                                               ; preds = %18
  %23 = load i32, ptr getelementptr inbounds nuw (%struct.darktable_t, ptr @darktable, i32 0, i32 2), align 8, !tbaa !82
  %24 = xor i32 %23, -1
  %25 = and i32 0, %24
  %26 = icmp ne i32 %25, 0
  br i1 %26, label %28, label %27

27:                                               ; preds = %22
  call void (ptr, ...) @dt_print_ext(ptr noundef @.str.476, ptr noundef @.str.48, i32 noundef 1102, ptr noundef @__FUNCTION__.edit_preset_response, ptr noundef @.str.497)
  br label %28

28:                                               ; preds = %27, %22, %18
  br label %29

29:                                               ; preds = %28
  br label %30

30:                                               ; preds = %29
  call void @llvm.lifetime.start.p0(i64 4, ptr %6) #10
  %31 = load ptr, ptr getelementptr inbounds nuw (%struct.darktable_t, ptr @darktable, i32 0, i32 18), align 8, !tbaa !139
  %32 = call ptr @dt_database_get(ptr noundef %31)
  %33 = call i32 @sqlite3_prepare_v2(ptr noundef %32, ptr noundef @.str.497, i32 noundef -1, ptr noundef %5, ptr noundef null)
  store i32 %33, ptr %6, align 4, !tbaa !57
  %34 = load i32, ptr %6, align 4, !tbaa !57
  %35 = icmp ne i32 %34, 0
  br i1 %35, label %36, label %42

36:                                               ; preds = %30
  %37 = load ptr, ptr @stderr, align 8, !tbaa !140
  %38 = load ptr, ptr getelementptr inbounds nuw (%struct.darktable_t, ptr @darktable, i32 0, i32 18), align 8, !tbaa !139
  %39 = call ptr @dt_database_get(ptr noundef %38)
  %40 = call ptr @sqlite3_errmsg(ptr noundef %39)
  %41 = call i32 (ptr, ptr, ...) @fprintf(ptr noundef %37, ptr noundef @.str.478, ptr noundef @.str.48, i32 noundef 1102, ptr noundef @__FUNCTION__.edit_preset_response, ptr noundef @.str.497, ptr noundef %40) #10
  br label %42

42:                                               ; preds = %36, %30
  call void @llvm.lifetime.end.p0(i64 4, ptr %6) #10
  br label %43

43:                                               ; preds = %42
  br label %44

44:                                               ; preds = %43
  call void @llvm.lifetime.start.p0(i64 4, ptr %7) #10
  %45 = load ptr, ptr %5, align 8, !tbaa !142
  %46 = load ptr, ptr %2, align 8, !tbaa !171
  %47 = getelementptr inbounds nuw %struct.dt_gui_presets_edit_dialog_t, ptr %46, i32 0, i32 25
  %48 = load i32, ptr %47, align 8, !tbaa !173
  %49 = call i32 @sqlite3_bind_int(ptr noundef %45, i32 noundef 1, i32 noundef %48)
  store i32 %49, ptr %7, align 4, !tbaa !57
  %50 = load i32, ptr %7, align 4, !tbaa !57
  %51 = icmp ne i32 %50, 0
  br i1 %51, label %52, label %58

52:                                               ; preds = %44
  %53 = load ptr, ptr @stderr, align 8, !tbaa !140
  %54 = load ptr, ptr getelementptr inbounds nuw (%struct.darktable_t, ptr @darktable, i32 0, i32 18), align 8, !tbaa !139
  %55 = call ptr @dt_database_get(ptr noundef %54)
  %56 = call ptr @sqlite3_errmsg(ptr noundef %55)
  %57 = call i32 (ptr, ptr, ...) @fprintf(ptr noundef %53, ptr noundef @.str.498, ptr noundef @.str.48, i32 noundef 1104, ptr noundef @__FUNCTION__.edit_preset_response, ptr noundef %56) #10
  br label %58

58:                                               ; preds = %52, %44
  call void @llvm.lifetime.end.p0(i64 4, ptr %7) #10
  %59 = load ptr, ptr %5, align 8, !tbaa !142
  %60 = call i32 @sqlite3_step(ptr noundef %59)
  %61 = icmp eq i32 %60, 100
  br i1 %61, label %62, label %69

62:                                               ; preds = %58
  %63 = load ptr, ptr %2, align 8, !tbaa !171
  %64 = getelementptr inbounds nuw %struct.dt_gui_presets_edit_dialog_t, ptr %63, i32 0, i32 28
  %65 = load ptr, ptr %64, align 8, !tbaa !178
  %66 = load ptr, ptr %5, align 8, !tbaa !142
  %67 = load ptr, ptr %3, align 8, !tbaa !144
  %68 = load ptr, ptr %4, align 8, !tbaa !144
  call void @_update_preset_line(ptr noundef %65, ptr noundef @edited_iter, ptr noundef %66, ptr noundef %67, ptr noundef %68)
  br label %69

69:                                               ; preds = %62, %58
  %70 = load ptr, ptr %5, align 8, !tbaa !142
  %71 = call i32 @sqlite3_finalize(ptr noundef %70)
  call void @llvm.lifetime.end.p0(i64 8, ptr %5) #10
  call void @llvm.lifetime.end.p0(i64 8, ptr %4) #10
  call void @llvm.lifetime.end.p0(i64 8, ptr %3) #10
  br label %72

72:                                               ; preds = %69, %12
  ret void
}