; Function Attrs: nounwind uwtable
define internal void @edit_preset_response(ptr noundef readonly captures(none) %0) #0 {
  %2 = alloca ptr, align 8
  %3 = alloca ptr, align 8
  %4 = alloca ptr, align 8
  %5 = getelementptr inbounds nuw i8, ptr %0, i64 200
  %6 = load i32, ptr %5, align 8, !tbaa !113
  %.not = icmp eq i32 %6, 0
  br i1 %.not, label %7, label %10

7:                                                ; preds = %1
  %8 = getelementptr inbounds nuw i8, ptr %0, i64 256
  %9 = load ptr, ptr %8, align 8, !tbaa !119
  tail call fastcc void @_delete_line_and_empty_parent(ptr noundef %9, ptr noundef nonnull @edited_iter)
  br label %47

10:                                               ; preds = %1
  call void @llvm.lifetime.start.p0(i64 8, ptr nonnull %2) #12
  call void @llvm.lifetime.start.p0(i64 8, ptr nonnull %3) #12
  call fastcc void @_create_lock_check_pixbuf(ptr noundef %2, ptr noundef %3)
  call void @llvm.lifetime.start.p0(i64 8, ptr nonnull %4) #12
  %11 = load i32, ptr getelementptr inbounds nuw (i8, ptr @darktable, i64 8), align 8, !tbaa !78
  %12 = and i32 %11, 256
  %.not5 = icmp eq i32 %12, 0
  br i1 %.not5, label %14, label %13

13:                                               ; preds = %10
  tail call void (ptr, ...) @dt_print_ext(ptr noundef nonnull @.str.476, ptr noundef nonnull @.str.48, i32 noundef 1102, ptr noundef nonnull @__FUNCTION__.edit_preset_response, ptr noundef nonnull @.str.497) #12
  br label %14

14:                                               ; preds = %13, %10
  %15 = load ptr, ptr getelementptr inbounds nuw (i8, ptr @darktable, i64 136), align 8, !tbaa !99
  %16 = tail call ptr @dt_database_get(ptr noundef %15) #12
  %17 = call i32 @sqlite3_prepare_v2(ptr noundef %16, ptr noundef nonnull @.str.497, i32 noundef -1, ptr noundef nonnull %4, ptr noundef null) #12
  %.not6 = icmp eq i32 %17, 0
  br i1 %.not6, label %24, label %18

18:                                               ; preds = %14
  %19 = load ptr, ptr @stderr, align 8, !tbaa !100
  %20 = load ptr, ptr getelementptr inbounds nuw (i8, ptr @darktable, i64 136), align 8, !tbaa !99
  %21 = call ptr @dt_database_get(ptr noundef %20) #12
  %22 = call ptr @sqlite3_errmsg(ptr noundef %21) #12
  %23 = call i32 (ptr, ptr, ...) @fprintf(ptr noundef %19, ptr noundef nonnull @.str.478, ptr noundef nonnull @.str.48, i32 noundef 1102, ptr noundef nonnull @__FUNCTION__.edit_preset_response, ptr noundef nonnull @.str.497, ptr noundef %22) #16
  br label %24

24:                                               ; preds = %18, %14
  %25 = load ptr, ptr %4, align 8, !tbaa !102
  %26 = load i32, ptr %5, align 8, !tbaa !113
  %27 = call i32 @sqlite3_bind_int(ptr noundef %25, i32 noundef 1, i32 noundef %26) #12
  %.not7 = icmp eq i32 %27, 0
  br i1 %.not7, label %34, label %28

28:                                               ; preds = %24
  %29 = load ptr, ptr @stderr, align 8, !tbaa !100
  %30 = load ptr, ptr getelementptr inbounds nuw (i8, ptr @darktable, i64 136), align 8, !tbaa !99
  %31 = call ptr @dt_database_get(ptr noundef %30) #12
  %32 = call ptr @sqlite3_errmsg(ptr noundef %31) #12
  %33 = call i32 (ptr, ptr, ...) @fprintf(ptr noundef %29, ptr noundef nonnull @.str.498, ptr noundef nonnull @.str.48, i32 noundef 1104, ptr noundef nonnull @__FUNCTION__.edit_preset_response, ptr noundef %32) #16
  br label %34

34:                                               ; preds = %28, %24
  %35 = load ptr, ptr %4, align 8, !tbaa !102
  %36 = call i32 @sqlite3_step(ptr noundef %35) #12
  %37 = icmp eq i32 %36, 100
  br i1 %37, label %38, label %44

38:                                               ; preds = %34
  %39 = getelementptr inbounds nuw i8, ptr %0, i64 256
  %40 = load ptr, ptr %39, align 8, !tbaa !119
  %41 = load ptr, ptr %4, align 8, !tbaa !102
  %42 = load ptr, ptr %2, align 8, !tbaa !104
  %43 = load ptr, ptr %3, align 8, !tbaa !104
  call fastcc void @_update_preset_line(ptr noundef %40, ptr noundef nonnull @edited_iter, ptr noundef %41, ptr noundef %42, ptr noundef %43)
  br label %44

44:                                               ; preds = %38, %34
  %45 = load ptr, ptr %4, align 8, !tbaa !102
  %46 = call i32 @sqlite3_finalize(ptr noundef %45) #12
  call void @llvm.lifetime.end.p0(i64 8, ptr nonnull %4) #12
  call void @llvm.lifetime.end.p0(i64 8, ptr nonnull %3) #12
  call void @llvm.lifetime.end.p0(i64 8, ptr nonnull %2) #12
  br label %47

47:                                               ; preds = %44, %7
  ret void
}